target datalayout = "e-m:e-p270:32:32-p271:32:32-p272:64:64-i64:64-i128:128-f80:128-n8:16:32:64-S128"
target triple = "x86_64-pc-linux-gnu"

@PyExc_TypeError = external global ptr, align 8
@.str.16 = private unnamed_addr constant [40 x i8] c"setrlimit expected 2 arguments, got %zd\00", align 1

; Function Attrs: nounwind uwtable
define internal ptr @resource_setrlimit(ptr noundef %0, ptr noundef %1, i64 noundef %2) #0 {
  %4 = alloca ptr, align 8
  %5 = alloca ptr, align 8
  %6 = alloca i64, align 8
  %7 = alloca ptr, align 8
  %8 = alloca i32, align 4
  %9 = alloca ptr, align 8
  store ptr %0, ptr %4, align 8, !tbaa !3
  store ptr %1, ptr %5, align 8, !tbaa !17
  store i64 %2, ptr %6, align 8, !tbaa !19
  call void @llvm.lifetime.start.p0(i64 8, ptr %7) #7
  store ptr null, ptr %7, align 8, !tbaa !3
  call void @llvm.lifetime.start.p0(i64 4, ptr %8) #7
  call void @llvm.lifetime.start.p0(i64 8, ptr %9) #7
  %10 = load i64, ptr %6, align 8, !tbaa !19
  %11 = icmp ne i64 %10, 2
  br i1 %11, label %12, label %16

12:                                               ; preds = %3
  %13 = load ptr, ptr @PyExc_TypeError, align 8, !tbaa !3
  %14 = load i64, ptr %6, align 8, !tbaa !19
  %15 = call ptr (ptr, ptr, ...) @PyErr_Format(ptr noundef %13, ptr noundef @.str.16, i64 noundef %14)
  br label %35

16:                                               ; preds = %3
  %17 = load ptr, ptr %5, align 8, !tbaa !17
  %18 = getelementptr ptr, ptr %17, i64 0
  %19 = load ptr, ptr %18, align 8, !tbaa !3
  %20 = call i32 @PyLong_AsInt(ptr noundef %19)
  store i32 %20, ptr %8, align 4, !tbaa !12
  %21 = load i32, ptr %8, align 4, !tbaa !12
  %22 = icmp eq i32 %21, -1
  br i1 %22, label %23, label %27

23:                                               ; preds = %16
  %24 = call ptr @PyErr_Occurred()
  %25 = icmp ne ptr %24, null
  br i1 %25, label %26, label %27

26:                                               ; preds = %23
  br label %35

27:                                               ; preds = %23, %16
  %28 = load ptr, ptr %5, align 8, !tbaa !17
  %29 = getelementptr ptr, ptr %28, i64 1
  %30 = load ptr, ptr %29, align 8, !tbaa !3
  store ptr %30, ptr %9, align 8, !tbaa !3
  %31 = load ptr, ptr %4, align 8, !tbaa !3
  %32 = load i32, ptr %8, align 4, !tbaa !12
  %33 = load ptr, ptr %9, align 8, !tbaa !3
  %34 = call ptr @resource_setrlimit_impl(ptr noundef %31, i32 noundef %32, ptr noundef %33)
  store ptr %34, ptr %7, align 8, !tbaa !3
  br label %35

35:                                               ; preds = %27, %26, %12
  %36 = load ptr, ptr %7, align 8, !tbaa !3
  call void @llvm.lifetime.end.p0(i64 8, ptr %9) #7
  call void @llvm.lifetime.end.p0(i64 4, ptr %8) #7
  call void @llvm.lifetime.end.p0(i64 8, ptr %7) #7
  ret ptr %36
}