; Function Attrs: nounwind uwtable
define internal ptr @resource_setrlimit(ptr readnone captures(none) %0, ptr noundef readonly captures(none) %1, i64 noundef %2) #0 {
  %.not = icmp eq i64 %2, 2
  br i1 %.not, label %7, label %4

4:                                                ; preds = %3
  %5 = load ptr, ptr @PyExc_TypeError, align 8, !tbaa !10
  %6 = tail call ptr (ptr, ptr, ...) @PyErr_Format(ptr noundef %5, ptr noundef nonnull @.str.16, i64 noundef %2) #6
  br label %17

7:                                                ; preds = %3
  %8 = load ptr, ptr %1, align 8, !tbaa !10
  %9 = tail call i32 @PyLong_AsInt(ptr noundef %8) #6
  %10 = icmp eq i32 %9, -1
  br i1 %10, label %14, label %.split

.split:                                           ; preds = %7
  %11 = getelementptr i8, ptr %1, i64 8
  %12 = load ptr, ptr %11, align 8, !tbaa !10
  %13 = tail call fastcc ptr @resource_setrlimit_impl(i32 noundef %9, ptr noundef %12)
  br label %17

14:                                               ; preds = %7
  %15 = tail call ptr @PyErr_Occurred() #6
  %.not11 = icmp eq ptr %15, null
  br i1 %.not11, label %.split8, label %17

.split8:                                          ; preds = %14
  %16 = load ptr, ptr @PyExc_ValueError, align 8, !tbaa !10
  tail call void @PyErr_SetString(ptr noundef %16, ptr noundef nonnull @.str.8) #6
  br label %17

17:                                               ; preds = %.split, %.split8, %14, %4
  %.0 = phi ptr [ null, %4 ], [ null, %14 ], [ %13, %.split ], [ null, %.split8 ]
  ret ptr %.0
}